target datalayout = "e-m:e-p270:32:32-p271:32:32-p272:64:64-i64:64-i128:128-f80:128-n8:16:32:64-S128"
target triple = "x86_64-pc-linux-gnu"

%struct.local_test_data_st = type { ptr, ptr }

@bio_out = global ptr null, align 8
@io_lock = internal global ptr null, align 8
@.str.2 = private unnamed_addr constant [40 x i8] c"../openssl/test/testutil/basic_output.c\00", align 1
@local_test_data = internal global i32 0, align 4
@.str.6 = private unnamed_addr constant [56 x i8] c"assertion failed: CRYPTO_THREAD_write_lock(io_lock) > 0\00", align 1

; Function Attrs: nounwind uwtable
define internal ptr @get_local_test_data() #0 {
  %1 = alloca ptr, align 8
  %2 = alloca ptr, align 8
  %3 = alloca i32, align 4
  call void @llvm.lifetime.start.p0(i64 8, ptr %2) #5
  %4 = call ptr @CRYPTO_THREAD_get_local(ptr noundef @local_test_data)
  store ptr %4, ptr %2, align 8, !tbaa !8
  %5 = load ptr, ptr %2, align 8, !tbaa !8
  %6 = icmp ne ptr %5, null
  br i1 %6, label %7, label %9

7:                                                ; preds = %0
  %8 = load ptr, ptr %2, align 8, !tbaa !8
  store ptr %8, ptr %1, align 8
  store i32 1, ptr %3, align 4
  br label %21

9:                                                ; preds = %0
  %10 = call noalias ptr @CRYPTO_zalloc(i64 noundef 16, ptr noundef @.str.2, i32 noundef 61)
  store ptr %10, ptr %2, align 8, !tbaa !8
  %11 = icmp eq ptr %10, null
  br i1 %11, label %12, label %13

12:                                               ; preds = %9
  store ptr null, ptr %1, align 8
  store i32 1, ptr %3, align 4
  br label %21

13:                                               ; preds = %9
  %14 = load ptr, ptr %2, align 8, !tbaa !8
  %15 = call i32 @CRYPTO_THREAD_set_local(ptr noundef @local_test_data, ptr noundef %14)
  %16 = icmp ne i32 %15, 0
  br i1 %16, label %19, label %17

17:                                               ; preds = %13
  %18 = load ptr, ptr %2, align 8, !tbaa !8
  call void @CRYPTO_free(ptr noundef %18, ptr noundef @.str.2, i32 noundef 65)
  store ptr null, ptr %1, align 8
  store i32 1, ptr %3, align 4
  br label %21

19:                                               ; preds = %13
  %20 = load ptr, ptr %2, align 8, !tbaa !8
  store ptr %20, ptr %1, align 8
  store i32 1, ptr %3, align 4
  br label %21

21:                                               ; preds = %19, %17, %12, %7
  call void @llvm.lifetime.end.p0(i64 8, ptr %2) #5
  %22 = load ptr, ptr %1, align 8
  ret ptr %22
}

; Function Attrs: inlinehint nounwind uwtable
define internal void @test_io_unlock() #4 {
  %1 = load ptr, ptr @io_lock, align 8, !tbaa !17
  %2 = call i32 @CRYPTO_THREAD_unlock(ptr noundef %1)
  ret void
}

; Function Attrs: nounwind uwtable
define internal ptr @get_bio_out() #0 {
  %1 = alloca ptr, align 8
  %2 = alloca ptr, align 8
  %3 = alloca i32, align 4
  call void @llvm.lifetime.start.p0(i64 8, ptr %2) #5
  %4 = call ptr @get_local_test_data()
  store ptr %4, ptr %2, align 8, !tbaa !8
  %5 = load ptr, ptr %2, align 8, !tbaa !8
  %6 = icmp ne ptr %5, null
  br i1 %6, label %7, label %16

7:                                                ; preds = %0
  %8 = load ptr, ptr %2, align 8, !tbaa !8
  %9 = getelementptr inbounds nuw %struct.local_test_data_st, ptr %8, i32 0, i32 0
  %10 = load ptr, ptr %9, align 8, !tbaa !10
  %11 = icmp ne ptr %10, null
  br i1 %11, label %12, label %16

12:                                               ; preds = %7
  %13 = load ptr, ptr %2, align 8, !tbaa !8
  %14 = getelementptr inbounds nuw %struct.local_test_data_st, ptr %13, i32 0, i32 0
  %15 = load ptr, ptr %14, align 8, !tbaa !10
  store ptr %15, ptr %1, align 8
  store i32 1, ptr %3, align 4
  br label %18

16:                                               ; preds = %7, %0
  %17 = load ptr, ptr @bio_out, align 8, !tbaa !3
  store ptr %17, ptr %1, align 8
  store i32 1, ptr %3, align 4
  br label %18

18:                                               ; preds = %16, %12
  call void @llvm.lifetime.end.p0(i64 8, ptr %2) #5
  %19 = load ptr, ptr %1, align 8
  ret ptr %19
}

; Function Attrs: inlinehint nounwind uwtable
define internal void @test_io_lock() #4 {
  %1 = load ptr, ptr @io_lock, align 8, !tbaa !17
  %2 = call i32 @CRYPTO_THREAD_write_lock(ptr noundef %1)
  %3 = icmp sgt i32 %2, 0
  br i1 %3, label %4, label %5

4:                                                ; preds = %0
  br label %7

5:                                                ; preds = %0
  call void @OPENSSL_die(ptr noundef @.str.6, ptr noundef @.str.2, i32 noundef 191) #6
  unreachable

6:                                                ; No predecessors!
  br label %7

7:                                                ; preds = %6, %4
  ret void
}

; Function Attrs: nounwind uwtable
define i32 @test_flush_stdout() #0 {
  %1 = alloca i32, align 4
  call void @llvm.lifetime.start.p0(i64 4, ptr %1) #5
  call void @test_io_lock()
  %2 = call ptr @get_bio_out()
  %3 = call i64 @BIO_ctrl(ptr noundef %2, i32 noundef 11, i64 noundef 0, ptr noundef null)
  %4 = trunc i64 %3 to i32
  store i32 %4, ptr %1, align 4, !tbaa !13
  call void @test_io_unlock()
  %5 = load i32, ptr %1, align 4, !tbaa !13
  call void @llvm.lifetime.end.p0(i64 4, ptr %1) #5
  ret i32 %5
}